

HI-TECH Software PIC PRO Macro Assembler V9.71a build 6446 
                                                                                               Mon Oct 11 23:41:47 2010

HI-TECH Software Omniscient Code Generator (PRO mode) build 6446
     1                           	processor	16F1823
     2                           	opt	pw 120
     3                           	opt	pm
     4                           	psect	idataBANK0,global,class=CODE,delta=2
     5                           	psect	nvBANK0,global,class=BANK0,space=1,delta=1
     6                           	psect	cinit,global,class=CODE,delta=2
     7                           	psect	bssCOMMON,global,class=COMMON,space=1,delta=1
     8                           	psect	bssBANK0,global,class=BANK0,space=1,delta=1
     9                           	psect	dataBANK0,global,class=BANK0,space=1,delta=1
    10                           	psect	clrtext,global,class=CODE,delta=2
    11                           	psect	cstackCOMMON,global,class=COMMON,space=1,delta=1
    12                           	psect	cstackBANK0,global,class=BANK0,space=1,delta=1
    13                           	psect	maintext,global,class=CODE,delta=2
    14                           	psect	text377,local,class=CODE,delta=2
    15                           	psect	text378,local,class=CODE,delta=2
    16                           	psect	text379,local,class=CODE,delta=2
    17                           	psect	text380,local,class=CODE,delta=2
    18                           	psect	text381,local,class=CODE,delta=2
    19                           	psect	text382,local,class=CODE,delta=2
    20                           	psect	text383,local,class=CODE,delta=2
    21                           	psect	text384,local,class=CODE,delta=2
    22                           	psect	text385,local,class=CODE,delta=2
    23                           	psect	text386,local,class=CODE,delta=2
    24                           	psect	text387,local,class=CODE,delta=2
    25                           	psect	intentry,global,class=CODE,delta=2
    26                           	psect	pa_nodes,global,class=CODE,delta=2
    27                           	dabs	1,0x7E,2
    28  000A                     
    29                           	psect	idataBANK0
    30  0000                     __pidataBANK0:	
    31                           
    32                           	psect	nvBANK0
    33  003B                     __pnvBANK0:	
    34  003B                     _mUVL:	
    35  003B                     	ds	1
    36  000C                     _PORTA	set	12
    37  000C                     _PORTAbits	set	12
    38  005F                     _GIE	set	95
    39  0059                     _INTF	set	89
    40  005D                     _T0IE	set	93
    41  005A                     _T0IF	set	90
    42  0095                     _OPTION_REG	set	149
    43  0099                     _OSCCON	set	153
    44  008C                     _TRISA	set	140
    45  008E                     _TRISC	set	142
    46  010C                     _LATA	set	268
    47  010E                     _LATC	set	270
    48  018C                     _ANSELA	set	396
    49                           
    50                           	psect	cinit
    51  0254                     start_initialization:	
    52                           
    53                           ; Clear objects allocated to COMMON
    54  0254  01FB               	clrf	__pbssCOMMON& (0+127)
    55  0255  01FC               	clrf	(__pbssCOMMON+1)& (0+127)
    56                           
    57                           ; Clear objects allocated to BANK0
    58  0256  3020               	movlw	low __pbssBANK0
    59  0257  0084               	movwf	4
    60  0258  3000               	movlw	high __pbssBANK0
    61  0259  0085               	movwf	5
    62  025A  3011               	movlw	17
    63  025B  3182  227B  3182   	fcall	clear_ram
    64                           
    65                           ;initializer for system_1s@tSec
    66  025E  303C               	movlw	60
    67  025F  00BC               	movwf	__pdataBANK0& (0+127)
    68  0260                     end_of_initialization:	
    69                           ;End of C runtime variable initialization code
    70                           
    71  0260  0020               	movlb	0
    72  0261  29FC               	ljmp	_main	;jump to C main() function
    73                           
    74                           	psect	bssCOMMON
    75  007B                     __pbssCOMMON:	
    76  007B                     _mBuzzer:	
    77  007B                     	ds	1
    78  007C                     _mLED_Color:	
    79  007C                     	ds	1
    80                           
    81                           	psect	bssBANK0
    82  0020                     __pbssBANK0:	
    83  0020                     _mRFID:	
    84  0020                     	ds	4
    85  0024                     system_output@tBuzzer_FlashCnt:	
    86  0024                     	ds	2
    87  0026                     system_output@tLED_FlashCnt:	
    88  0026                     	ds	2
    89  0028                     system_process@tDelay:	
    90  0028                     	ds	2
    91  002A                     system_process@tTMR_1S_CNT:	
    92  002A                     	ds	2
    93  002C                     FS_RD@pFS:	
    94  002C                     	ds	1
    95  002D                     _mFS_Cnt:	
    96  002D                     	ds	1
    97  002E                     _mTimer_Flag0:	
    98  002E                     	ds	1
    99  002F                     isr@pFS_IN:	
   100  002F                     	ds	1
   101  0030                     isr@tCntA:	
   102  0030                     	ds	1
   103                           
   104                           	psect	dataBANK0
   105  003C                     __pdataBANK0:	
   106  003C                     system_1s@tSec:	
   107  003C                     	ds	1
   108                           
   109                           	psect	clrtext
   110  027B                     clear_ram:	
   111                           ;	Called with FSR0 containing the base address, and
   112                           ;	WREG with the size to clear
   113                           
   114  027B  0064               	clrwdt	;clear the watchdog before getting into this loop
   115  027C                     clrloop:	
   116  027C  0180               	clrf	0	;clear RAM location pointed to by FSR
   117  027D  3101               	addfsr 0,1
   118  027E  0B89               	decfsz	9,f	;Have we reached the end of clearing yet?
   119  027F  2A7C               	goto	clrloop	;have we reached the end yet?
   120  0280  3400               	retlw	0	;all done for this memory range, return
   121                           
   122                           	psect	cstackCOMMON
   123  0070                     __pcstackCOMMON:	
   124  0070                     ?_system_process:	
   125  0070                     ?_system_output:	
   126                           ; 0 bytes @ 0x0
   127                           
   128  0070                     ?_UVL:	
   129                           ; 0 bytes @ 0x0
   130                           
   131  0070                     ?_LED_RGB:	
   132                           ; 0 bytes @ 0x0
   133                           
   134  0070                     ?_Buzzer:	
   135                           ; 0 bytes @ 0x0
   136                           
   137  0070                     ?_main:	
   138                           ; 0 bytes @ 0x0
   139                           
   140  0070                     ?_isr:	
   141                           ; 0 bytes @ 0x0
   142                           
   143  0070                     ??_isr:	
   144                           ; 0 bytes @ 0x0
   145                           
   146  0070                     ?_system_1s:	
   147                           ; 0 bytes @ 0x0
   148                           
   149  0070                     ?_FS_RD:	
   150                           ; 0 bytes @ 0x0
   151                           
   152  0070                     isr@tFS_IN:	
   153                           ; 1 bytes @ 0x0
   154                           
   155                           
   156                           ; 1 bytes @ 0x0
   157  0070                     	ds	1
   158  0071                     ??_FS_RD:	
   159  0071                     ??_UVL:	
   160                           ; 0 bytes @ 0x1
   161                           
   162  0071                     ??_LED_RGB:	
   163                           ; 0 bytes @ 0x1
   164                           
   165  0071                     ??_Buzzer:	
   166                           ; 0 bytes @ 0x1
   167                           
   168  0071                     ?___ftpack:	
   169                           ; 0 bytes @ 0x1
   170                           
   171  0071                     ?_RFID_RD:	
   172                           ; 3 bytes @ 0x1
   173                           
   174  0071                     LED_RGB@iVal:	
   175                           ; 4 bytes @ 0x1
   176                           
   177  0071                     UVL@iVal:	
   178                           ; 1 bytes @ 0x1
   179                           
   180  0071                     FS_RD@tFS:	
   181                           ; 1 bytes @ 0x1
   182                           
   183  0071                     ___ftpack@arg:	
   184                           ; 2 bytes @ 0x1
   185                           
   186                           
   187                           ; 3 bytes @ 0x1
   188  0071                     	ds	1
   189  0072                     LED_RGB@tPort:	
   190  0072                     Buzzer@iVal:	
   191                           ; 1 bytes @ 0x2
   192                           
   193  0072                     UVL@tPort:	
   194                           ; 1 bytes @ 0x2
   195                           
   196                           
   197                           ; 1 bytes @ 0x2
   198  0072                     	ds	1
   199  0073                     Buzzer@tPort:	
   200  0073                     FS_RD@iFS:	
   201                           ; 1 bytes @ 0x3
   202                           
   203                           
   204                           ; 1 bytes @ 0x3
   205  0073                     	ds	1
   206  0074                     ___ftpack@exp:	
   207                           
   208                           ; 1 bytes @ 0x4
   209  0074                     	ds	1
   210  0075                     ??_RFID_RD:	
   211  0075                     ___ftpack@sign:	
   212                           ; 0 bytes @ 0x5
   213                           
   214  0075                     RFID_RD@tRFID:	
   215                           ; 1 bytes @ 0x5
   216                           
   217                           
   218                           ; 4 bytes @ 0x5
   219  0075                     	ds	1
   220  0076                     ??___ftpack:	
   221                           
   222                           ; 0 bytes @ 0x6
   223  0076                     	ds	3
   224  0079                     ??_system_output:	
   225  0079                     ??___ftge:	
   226                           ; 0 bytes @ 0x9
   227                           
   228  0079                     ??___lwtoft:	
   229                           ; 0 bytes @ 0x9
   230                           
   231  0079                     system_output@ttmp:	
   232                           ; 0 bytes @ 0x9
   233                           
   234  0079                     RFID_RD@i:	
   235                           ; 1 bytes @ 0x9
   236                           
   237                           
   238                           ; 2 bytes @ 0x9
   239  0079                     	ds	1
   240  007A                     system_output@tmp:	
   241                           
   242                           ; 1 bytes @ 0xA
   243  007A                     	ds	1
   244  007B                     ??_system_process:	
   245  007B                     ??_main:	
   246                           ; 0 bytes @ 0xB
   247                           
   248  007B                     ??_system_1s:	
   249                           ; 0 bytes @ 0xB
   250                           
   251                           
   252                           	psect	cstackBANK0
   253  0031                     __pcstackBANK0:	
   254                           ; 0 bytes @ 0xB
   255                           
   256  0031                     ?___ftge:	
   257  0031                     ___ftge@ff1:	
   258                           ; 1 bit 
   259                           
   260                           
   261                           ; 3 bytes @ 0x0
   262  0031                     	ds	3
   263  0034                     ___ftge@ff2:	
   264                           
   265                           ; 3 bytes @ 0x3
   266  0034                     	ds	3
   267  0037                     ?___lwtoft:	
   268  0037                     ___lwtoft@c:	
   269                           ; 3 bytes @ 0x6
   270                           
   271                           
   272                           ; 2 bytes @ 0x6
   273  0037                     	ds	3
   274  003A                     system_process@tFC:	
   275                           
   276                           ; 1 bytes @ 0x9
   277  003A                     	ds	1
   278                           
   279                           	psect	maintext
   280  01FC                     __pmaintext:	
   281 ;;Data sizes: Strings 0, constant 0, data 1, bss 19, persistent 1 stack 0
   282 ;;Auto spaces:   Size  Autos    Used
   283 ;; COMMON          14     11      13
   284 ;; BANK0           80     10      29
   285 ;; BANK1           32      0       0
   286 ;;
   287 ;; Pointer list with targets:
   288 ;; ?___ftpack	float  size(1) Largest target is 0
   289 ;;
   290 ;; ?_RFID_RD	unsigned long  size(1) Largest target is 0
   291 ;;
   292 ;; ?___lwtoft	float  size(1) Largest target is 0
   293 ;;
   294 ;;
   295 ;; Critical Paths under _main in COMMON
   296 ;;
   297 ;;   _main->_system_output
   298 ;;   ___lwtoft->___ftpack
   299 ;;   _system_1s->_RFID_RD
   300 ;;   ___ftge->___ftpack
   301 ;;
   302 ;; Critical Paths under _isr in COMMON
   303 ;;
   304 ;;   None.
   305 ;;
   306 ;; Critical Paths under _main in BANK0
   307 ;;
   308 ;;   _main->_system_process
   309 ;;   _system_output->___lwtoft
   310 ;;   _system_process->___lwtoft
   311 ;;   ___lwtoft->___ftge
   312 ;;
   313 ;; Critical Paths under _isr in BANK0
   314 ;;
   315 ;;   None.
   316 ;;
   317 ;; Critical Paths under _main in BANK1
   318 ;;
   319 ;;   None.
   320 ;;
   321 ;; Critical Paths under _isr in BANK1
   322 ;;
   323 ;;   None.
   324 ;;
   325 ;;Main: autosize = 0, tempsize = 0, incstack = 0, save=0
   326 ;;
   327 ;;
   328 ;;Call Graph Tables:
   329 ;;
   330 ;; ---------------------------------------------------------------------------------
   331 ;; (Depth) Function   	        Calls       Base Space   Used Autos Params    Refs
   332 ;; ---------------------------------------------------------------------------------
   333 ;; (0) _main                                                13    13      0    1682
   334 ;;                     _system_process
   335 ;;                      _system_output
   336 ;; ---------------------------------------------------------------------------------
   337 ;; (1) _system_output                                        2     2      0     718
   338 ;;                                              9 COMMON     2     2      0
   339 ;;                           ___lwtoft
   340 ;;                             ___ftge
   341 ;;                            _LED_RGB
   342 ;;                             _Buzzer
   343 ;; ---------------------------------------------------------------------------------
   344 ;; (1) _system_process                                       1     1      0     964
   345 ;;                                              9 BANK0      1     1      0
   346 ;;                              _FS_RD
   347 ;;                                _UVL
   348 ;;                           ___lwtoft
   349 ;;                             ___ftge
   350 ;;                          _system_1s
   351 ;; ---------------------------------------------------------------------------------
   352 ;; (2) ___lwtoft                                             3     0      3     343
   353 ;;                                              6 BANK0      3     0      3
   354 ;;                           ___ftpack
   355 ;;                             ___ftge (ARG)
   356 ;; ---------------------------------------------------------------------------------
   357 ;; (2) _system_1s                                            0     0      0     179
   358 ;;                            _RFID_RD
   359 ;; ---------------------------------------------------------------------------------
   360 ;; (2) ___ftge                                               6     0      6     198
   361 ;;                                              0 BANK0      6     0      6
   362 ;;                           ___ftpack (ARG)
   363 ;; ---------------------------------------------------------------------------------
   364 ;; (3) ___ftpack                                             8     3      5     312
   365 ;;                                              1 COMMON     8     3      5
   366 ;; ---------------------------------------------------------------------------------
   367 ;; (2) _Buzzer                                               3     3      0      47
   368 ;;                                              1 COMMON     3     3      0
   369 ;; ---------------------------------------------------------------------------------
   370 ;; (2) _LED_RGB                                              2     2      0      47
   371 ;;                                              1 COMMON     2     2      0
   372 ;; ---------------------------------------------------------------------------------
   373 ;; (2) _UVL                                                  2     2      0      71
   374 ;;                                              1 COMMON     2     2      0
   375 ;; ---------------------------------------------------------------------------------
   376 ;; (2) _FS_RD                                                3     3      0     136
   377 ;;                                              1 COMMON     3     3      0
   378 ;; ---------------------------------------------------------------------------------
   379 ;; (3) _RFID_RD                                             10     6      4     179
   380 ;;                                              1 COMMON    10     6      4
   381 ;; ---------------------------------------------------------------------------------
   382 ;; Estimated maximum stack depth 3
   383 ;; ---------------------------------------------------------------------------------
   384 ;; (Depth) Function   	        Calls       Base Space   Used Autos Params    Refs
   385 ;; ---------------------------------------------------------------------------------
   386 ;; (4) _isr                                                  1     1      0      67
   387 ;;                                              0 COMMON     1     1      0
   388 ;; ---------------------------------------------------------------------------------
   389 ;; Estimated maximum stack depth 4
   390 ;; ---------------------------------------------------------------------------------
   391 ;; Call Graph Graphs:
   392 ;; _main (ROOT)
   393 ;;   _system_process
   394 ;;     _FS_RD
   395 ;;     _UVL
   396 ;;     ___lwtoft
   397 ;;       ___ftpack
   398 ;;       ___ftge (ARG)
   399 ;;         ___ftpack (ARG)
   400 ;;     ___ftge
   401 ;;       ___ftpack (ARG)
   402 ;;     _system_1s
   403 ;;       _RFID_RD
   404 ;;   _system_output
   405 ;;     ___lwtoft
   406 ;;       ___ftpack
   407 ;;       ___ftge (ARG)
   408 ;;         ___ftpack (ARG)
   409 ;;     ___ftge
   410 ;;       ___ftpack (ARG)
   411 ;;     _LED_RGB
   412 ;;     _Buzzer
   413 ;;
   414 ;; _isr (ROOT)
   415 ;;
   416 ;; Address spaces:
   417 ;;Name               Size   Autos  Total    Cost      Usage
   418 ;;BIGRAM              70      0       0       0        0.0%
   419 ;;EEDATA             100      0       0       0        0.0%
   420 ;;NULL                 0      0       0       0        0.0%
   421 ;;CODE                 0      0       0       0        0.0%
   422 ;;BITCOMMON            E      0       0       1        0.0%
   423 ;;BITSFR0              0      0       0       1        0.0%
   424 ;;SFR0                 0      0       0       1        0.0%
   425 ;;COMMON               E      B       D       2       92.9%
   426 ;;BITSFR1              0      0       0       2        0.0%
   427 ;;SFR1                 0      0       0       2        0.0%
   428 ;;BITSFR2              0      0       0       3        0.0%
   429 ;;SFR2                 0      0       0       3        0.0%
   430 ;;STACK                0      0       3       3        0.0%
   431 ;;BITSFR3              0      0       0       4        0.0%
   432 ;;SFR3                 0      0       0       4        0.0%
   433 ;;ABS                  0      0      2A       4        0.0%
   434 ;;BITBANK0            50      0       0       5        0.0%
   435 ;;BITSFR4              0      0       0       5        0.0%
   436 ;;SFR4                 0      0       0       5        0.0%
   437 ;;BANK0               50      A      1D       6       36.3%
   438 ;;BITSFR5              0      0       0       6        0.0%
   439 ;;SFR5                 0      0       0       6        0.0%
   440 ;;BITBANK1            20      0       0       7        0.0%
   441 ;;BITSFR6              0      0       0       7        0.0%
   442 ;;SFR6                 0      0       0       7        0.0%
   443 ;;BANK1               20      0       0       8        0.0%
   444 ;;BITSFR7              0      0       0       8        0.0%
   445 ;;SFR7                 0      0       0       8        0.0%
   446 ;;BITSFR8              0      0       0       9        0.0%
   447 ;;SFR8                 0      0       0       9        0.0%
   448 ;;DATA                 0      0      2D       9        0.0%
   449 ;;BITSFR9              0      0       0      10        0.0%
   450 ;;SFR9                 0      0       0      10        0.0%
   451 ;;BITSFR10             0      0       0      11        0.0%
   452 ;;SFR10                0      0       0      11        0.0%
   453 ;;BITSFR11             0      0       0      12        0.0%
   454 ;;SFR11                0      0       0      12        0.0%
   455 ;;BITSFR12             0      0       0      13        0.0%
   456 ;;SFR12                0      0       0      13        0.0%
   457 ;;BITSFR13             0      0       0      14        0.0%
   458 ;;SFR13                0      0       0      14        0.0%
   459 ;;BITSFR14             0      0       0      15        0.0%
   460 ;;SFR14                0      0       0      15        0.0%
   461 ;;BITSFR15             0      0       0      16        0.0%
   462 ;;SFR15                0      0       0      16        0.0%
   463 ;;BITSFR16             0      0       0      17        0.0%
   464 ;;SFR16                0      0       0      17        0.0%
   465 ;;BITSFR17             0      0       0      18        0.0%
   466 ;;SFR17                0      0       0      18        0.0%
   467 ;;BITSFR18             0      0       0      19        0.0%
   468 ;;SFR18                0      0       0      19        0.0%
   469 ;;BITSFR19             0      0       0      20        0.0%
   470 ;;SFR19                0      0       0      20        0.0%
   471 ;;BITSFR20             0      0       0      21        0.0%
   472 ;;SFR20                0      0       0      21        0.0%
   473 ;;BITSFR21             0      0       0      22        0.0%
   474 ;;SFR21                0      0       0      22        0.0%
   475 ;;BITSFR22             0      0       0      23        0.0%
   476 ;;SFR22                0      0       0      23        0.0%
   477 ;;BITSFR23             0      0       0      24        0.0%
   478 ;;SFR23                0      0       0      24        0.0%
   479 ;;BITSFR24             0      0       0      25        0.0%
   480 ;;SFR24                0      0       0      25        0.0%
   481 ;;BITSFR25             0      0       0      26        0.0%
   482 ;;SFR25                0      0       0      26        0.0%
   483 ;;BITSFR26             0      0       0      27        0.0%
   484 ;;SFR26                0      0       0      27        0.0%
   485 ;;BITSFR27             0      0       0      28        0.0%
   486 ;;SFR27                0      0       0      28        0.0%
   487 ;;BITSFR28             0      0       0      29        0.0%
   488 ;;SFR28                0      0       0      29        0.0%
   489 ;;BITSFR29             0      0       0      30        0.0%
   490 ;;SFR29                0      0       0      30        0.0%
   491 ;;BITSFR30             0      0       0      31        0.0%
   492 ;;SFR30                0      0       0      31        0.0%
   493 ;;BITSFR31             0      0       0      32        0.0%
   494 ;;SFR31                0      0       0      32        0.0%
   495                           
   496                           
   497 ;; *************** function _main *****************
   498 ;; Defined at:
   499 ;;		line 58 in file "C:\working\microchip\Firmware_Test1\src\zuvo300_main.c"
   500 ;; Parameters:    Size  Location     Type
   501 ;;		None
   502 ;; Auto vars:     Size  Location     Type
   503 ;;  UVLCnt          4    0        unsigned long 
   504 ;;  j               4    0        unsigned long 
   505 ;;  i               4    0        unsigned long 
   506 ;;  tmp             1    0        unsigned char 
   507 ;; Return value:  Size  Location     Type
   508 ;;		None               void
   509 ;; Registers used:
   510 ;;		wreg, fsr0l, fsr0h, status,2, status,0, pclath, cstack
   511 ;; Tracked objects:
   512 ;;		On entry : 17F/0
   513 ;;		On exit  : 17F/2
   514 ;;		Unchanged: FFE80/0
   515 ;; Data sizes:     COMMON   BANK0   BANK1
   516 ;;      Params:         0       0       0
   517 ;;      Locals:         0       0       0
   518 ;;      Temps:          0       0       0
   519 ;;      Totals:         0       0       0
   520 ;;Total ram usage:        0 bytes
   521 ;; Hardware stack levels required when called:    4
   522 ;; This function calls:
   523 ;;		_system_process
   524 ;;		_system_output
   525 ;; This function is called by:
   526 ;;		Startup code after reset
   527 ;; This function uses a non-reentrant model
   528 ;;
   529  01FC                     _main:	
   530                           
   531                           ;zuvo300_main.c: 66: OSCCON = 0x72;
   532                           
   533                           ; Regs used in _main: [wreg-fsr0h+status,2+status,0+pclath+cstack]
   534  01FC  3072               	movlw	114
   535  01FD  0021               	movlb	1	; select bank1
   536  01FE  0099               	movwf	25	;volatile
   537                           
   538                           ;zuvo300_main.c: 69: ANSELA = 0x00;
   539  01FF  0023               	movlb	3	; select bank3
   540  0200  018C               	clrf	12	;volatile
   541                           
   542                           ;zuvo300_main.c: 70: TRISA = 0xff;
   543  0201  30FF               	movlw	255
   544  0202  0021               	movlb	1	; select bank1
   545  0203  008C               	movwf	12	;volatile
   546                           
   547                           ;zuvo300_main.c: 71: TRISC = ~0xff;
   548  0204  018E               	clrf	14	;volatile
   549                           
   550                           ;zuvo300_main.c: 72: OPTION_REG = 0x82;
   551  0205  3082               	movlw	130
   552  0206  0095               	movwf	21	;volatile
   553                           
   554                           ;zuvo300_main.c: 80: T0IE = 1;
   555  0207  168B               	bsf	11,5
   556                           
   557                           ;zuvo300_main.c: 83: GIE = 1;
   558  0208  178B               	bsf	11,7
   559                           
   560                           ;zuvo300_main.c: 87: mLED_Color = 0x00;
   561  0209  01FC               	clrf	_mLED_Color
   562                           
   563                           ;zuvo300_main.c: 88: mUVL = 0x01;
   564  020A  0020               	movlb	0	; select bank0
   565  020B  01BB               	clrf	_mUVL
   566  020C  0ABB               	incf	_mUVL,f
   567                           
   568                           ;zuvo300_main.c: 89: mBuzzer = 0x00;
   569  020D  01FB               	clrf	_mBuzzer
   570                           
   571                           ;zuvo300_main.c: 93: LATC = 0x1c;
   572  020E  301C               	movlw	28
   573  020F  0022               	movlb	2	; select bank2
   574  0210  008E               	movwf	14	;volatile
   575                           
   576                           ;zuvo300_main.c: 94: LATA = 0xff;
   577  0211  30FF               	movlw	255
   578  0212  008C               	movwf	12	;volatile
   579  0213                     l2656:	
   580                           
   581                           ;zuvo300_main.c: 97: {
   582                           ;zuvo300_main.c: 101: if (mTimer_Flag0)
   583  0213  0020               	movlb	0	; select bank0
   584  0214  082E               	movf	_mTimer_Flag0,w
   585  0215  1903               	btfsc	3,2
   586  0216  2A13               	goto	l2656
   587                           
   588                           ;zuvo300_main.c: 102: {
   589                           ;zuvo300_main.c: 104: mTimer_Flag0 = 0;
   590  0217  01AE               	clrf	_mTimer_Flag0
   591                           
   592                           ;zuvo300_main.c: 117: system_process();
   593  0218  3181  2119  3181   	fcall	_system_process
   594                           
   595                           ;zuvo300_main.c: 122: system_output();
   596  021B  3180  2023  3181   	fcall	_system_output
   597  021E  2A13               	goto	l2656
   598  021F                     __end_of_main:	
   599                           
   600                           	psect	text377
   601  0023                     __ptext377:	
   602 ;; =============== function _main ends ============
   603                           
   604                           
   605 ;; *************** function _system_output *****************
   606 ;; Defined at:
   607 ;;		line 259 in file "C:\working\microchip\Firmware_Test1\src\zuvo300_main.c"
   608 ;; Parameters:    Size  Location     Type
   609 ;;		None
   610 ;; Auto vars:     Size  Location     Type
   611 ;;  tmp             1   10[COMMON] unsigned char 
   612 ;;  ttmp            1    9[COMMON] unsigned char 
   613 ;; Return value:  Size  Location     Type
   614 ;;		None               void
   615 ;; Registers used:
   616 ;;		wreg, status,2, status,0, pclath, cstack
   617 ;; Tracked objects:
   618 ;;		On entry : 17F/0
   619 ;;		On exit  : 17F/2
   620 ;;		Unchanged: FFE80/0
   621 ;; Data sizes:     COMMON   BANK0   BANK1
   622 ;;      Params:         0       0       0
   623 ;;      Locals:         2       0       0
   624 ;;      Temps:          0       0       0
   625 ;;      Totals:         2       0       0
   626 ;;Total ram usage:        2 bytes
   627 ;; Hardware stack levels used:    1
   628 ;; Hardware stack levels required when called:    3
   629 ;; This function calls:
   630 ;;		___lwtoft
   631 ;;		___ftge
   632 ;;		_LED_RGB
   633 ;;		_Buzzer
   634 ;; This function is called by:
   635 ;;		_main
   636 ;; This function uses a non-reentrant model
   637 ;;
   638  0023                     _system_output:	
   639                           
   640                           ;zuvo300_main.c: 260: unsigned char tmp;
   641                           ;zuvo300_main.c: 261: unsigned char ttmp;
   642                           ;zuvo300_main.c: 262: static unsigned int tLED_FlashCnt=0;
   643                           ;zuvo300_main.c: 263: static unsigned int tBuzzer_FlashCnt=0;
   644                           ;zuvo300_main.c: 269: if ((mLED_Color & 0x80) ==0)
   645                           
   646                           ; Regs used in _system_output: [wreg+status,2+status,0+pclath+cstack]
   647  0023  1BFC               	btfsc	_mLED_Color,7
   648  0024  2828               	goto	l2598
   649                           
   650                           ;zuvo300_main.c: 270: tLED_FlashCnt=0;
   651  0025  01A6               	clrf	system_output@tLED_FlashCnt
   652  0026  01A7               	clrf	system_output@tLED_FlashCnt+1
   653  0027  282B               	goto	l2600
   654  0028                     l2598:	
   655                           
   656                           ;zuvo300_main.c: 271: else
   657                           ;zuvo300_main.c: 272: tLED_FlashCnt++;
   658  0028  0AA6               	incf	system_output@tLED_FlashCnt,f
   659  0029  1903               	skipnz
   660  002A  0AA7               	incf	system_output@tLED_FlashCnt+1,f
   661  002B                     l2600:	
   662                           
   663                           ;zuvo300_main.c: 274: tmp = mLED_Color & 0x07;
   664  002B  087C               	movf	_mLED_Color,w
   665  002C  00FA               	movwf	system_output@tmp
   666  002D  3007               	movlw	7
   667  002E  05FA               	andwf	system_output@tmp,f
   668                           
   669                           ;zuvo300_main.c: 275: if ((tLED_FlashCnt>=(0.5/0.01024)) && (tLED_FlashCnt<=((1.5/0.0102
      +                          4)+(0.5/0.01024))))
   670  002F  0827               	movf	system_output@tLED_FlashCnt+1,w
   671  0030  00B8               	movwf	?___lwtoft+1
   672  0031  0826               	movf	system_output@tLED_FlashCnt,w
   673  0032  00B7               	movwf	?___lwtoft
   674  0033  3182  221F  3180   	fcall	___lwtoft
   675  0036  0837               	movf	?___lwtoft,w
   676  0037  00B1               	movwf	?___ftge
   677  0038  0838               	movf	?___lwtoft+1,w
   678  0039  00B2               	movwf	?___ftge+1
   679  003A  0839               	movf	?___lwtoft+2,w
   680  003B  00B3               	movwf	?___ftge+2
   681  003C  3050               	movlw	80
   682  003D  00B4               	movwf	?___ftge+3
   683  003E  3043               	movlw	67
   684  003F  00B5               	movwf	?___ftge+4
   685  0040  3042               	movlw	66
   686  0041  00B6               	movwf	?___ftge+5
   687  0042  3181  21D0  3180   	fcall	___ftge
   688  0045  20CA  3180         	fcall	PL3	;call to abstracted procedure
   689  0047  1C03               	btfss	3,0
   690  0048  285F               	goto	L1
   691  0049  3182  221F  3180   	fcall	___lwtoft
   692  004C  0837               	movf	?___lwtoft,w
   693  004D  00B4               	movwf	?___ftge+3
   694  004E  0838               	movf	?___lwtoft+1,w
   695  004F  00B5               	movwf	?___ftge+4
   696  0050  0839               	movf	?___lwtoft+2,w
   697  0051  00B6               	movwf	?___ftge+5
   698  0052  3181  21D0  3180   	fcall	___ftge
   699  0055  1C03               	btfss	3,0
   700  0056  285D               	goto	l2608
   701                           
   702                           ;zuvo300_main.c: 276: {
   703                           ;zuvo300_main.c: 277: tmp = (mLED_Color >> 4) & 0x07;
   704  0057  0E7C               	swapf	_mLED_Color,w
   705  0058  390F               	andlw	15
   706  0059  00FA               	movwf	system_output@tmp
   707  005A  3007               	movlw	7
   708  005B  05FA               	andwf	system_output@tmp,f
   709                           
   710                           ;zuvo300_main.c: 278: }
   711  005C  286F               	goto	l2612
   712  005D                     l2608:	
   713                           
   714                           ;zuvo300_main.c: 279: else if (tLED_FlashCnt>((1.5/0.01024)+(0.5/0.01024)))
   715  005D  20CA  3180         	fcall	PL3	;call to abstracted procedure
   716  005F                     L1:	
   717  005F  3182  221F  3180   	fcall	___lwtoft
   718  0062  0837               	movf	?___lwtoft,w
   719  0063  00B4               	movwf	?___ftge+3
   720  0064  0838               	movf	?___lwtoft+1,w
   721  0065  00B5               	movwf	?___ftge+4
   722  0066  0839               	movf	?___lwtoft+2,w
   723  0067  00B6               	movwf	?___ftge+5
   724  0068  3181  21D0  3180   	fcall	___ftge
   725  006B  1803               	btfsc	3,0
   726  006C  286F               	goto	l2612
   727                           
   728                           ;zuvo300_main.c: 280: {
   729                           ;zuvo300_main.c: 281: tLED_FlashCnt =0;
   730  006D  01A6               	clrf	system_output@tLED_FlashCnt
   731  006E  01A7               	clrf	system_output@tLED_FlashCnt+1
   732  006F                     l2612:	
   733                           
   734                           ;zuvo300_main.c: 282: }
   735                           ;zuvo300_main.c: 285: LED_RGB(tmp);
   736  006F  087A               	movf	system_output@tmp,w
   737  0070  3182  2262  3180   	fcall	_LED_RGB
   738                           
   739                           ;zuvo300_main.c: 290: if ((mBuzzer & 0x80) == 0)
   740  0073  1BFB               	btfsc	_mBuzzer,7
   741  0074  2879               	goto	l2618
   742                           
   743                           ;zuvo300_main.c: 291: tBuzzer_FlashCnt=0;
   744  0075  0020               	movlb	0	; select bank0
   745  0076  01A4               	clrf	system_output@tBuzzer_FlashCnt
   746  0077  01A5               	clrf	system_output@tBuzzer_FlashCnt+1
   747  0078  287D               	goto	l2620
   748  0079                     l2618:	
   749                           
   750                           ;zuvo300_main.c: 292: else
   751                           ;zuvo300_main.c: 293: tBuzzer_FlashCnt++;
   752  0079  0020               	movlb	0	; select bank0
   753  007A  0AA4               	incf	system_output@tBuzzer_FlashCnt,f
   754  007B  1903               	skipnz
   755  007C  0AA5               	incf	system_output@tBuzzer_FlashCnt+1,f
   756  007D                     l2620:	
   757                           
   758                           ;zuvo300_main.c: 295: ttmp = mBuzzer & 0x01;
   759  007D  087B               	movf	_mBuzzer,w
   760  007E  00F9               	movwf	system_output@ttmp
   761  007F  3001               	movlw	1
   762  0080  05F9               	andwf	system_output@ttmp,f
   763                           
   764                           ;zuvo300_main.c: 296: if ((tBuzzer_FlashCnt>=(1.5/0.01024)) && (tBuzzer_FlashCnt<=((1.5/
      +                          0.01024)+(1.5/0.01024))))
   765  0081  0825               	movf	system_output@tBuzzer_FlashCnt+1,w
   766  0082  00B8               	movwf	?___lwtoft+1
   767  0083  0824               	movf	system_output@tBuzzer_FlashCnt,w
   768  0084  00B7               	movwf	?___lwtoft
   769  0085  3182  221F  3180   	fcall	___lwtoft
   770  0088  0837               	movf	?___lwtoft,w
   771  0089  00B1               	movwf	?___ftge
   772  008A  0838               	movf	?___lwtoft+1,w
   773  008B  00B2               	movwf	?___ftge+1
   774  008C  0839               	movf	?___lwtoft+2,w
   775  008D  00B3               	movwf	?___ftge+2
   776  008E  307C               	movlw	124
   777  008F  00B4               	movwf	?___ftge+3
   778  0090  3012               	movlw	18
   779  0091  00B5               	movwf	?___ftge+4
   780  0092  3043               	movlw	67
   781  0093  00B6               	movwf	?___ftge+5
   782  0094  3181  21D0  3180   	fcall	___ftge
   783  0097  20BF  3180         	fcall	PL2	;call to abstracted procedure
   784  0099  1C03               	btfss	3,0
   785  009A  28AD               	goto	L2
   786  009B  3182  221F  3180   	fcall	___lwtoft
   787  009E  0837               	movf	?___lwtoft,w
   788  009F  00B4               	movwf	?___ftge+3
   789  00A0  0838               	movf	?___lwtoft+1,w
   790  00A1  00B5               	movwf	?___ftge+4
   791  00A2  0839               	movf	?___lwtoft+2,w
   792  00A3  00B6               	movwf	?___ftge+5
   793  00A4  3181  21D0  3180   	fcall	___ftge
   794  00A7  1C03               	btfss	3,0
   795  00A8  28AB               	goto	l2628
   796                           
   797                           ;zuvo300_main.c: 297: {
   798                           ;zuvo300_main.c: 298: ttmp = 0x00;
   799  00A9  01F9               	clrf	system_output@ttmp
   800                           
   801                           ;zuvo300_main.c: 299: }
   802  00AA  28BD               	goto	l2632
   803  00AB                     l2628:	
   804                           
   805                           ;zuvo300_main.c: 300: else if (tBuzzer_FlashCnt>((1.5/0.01024)+(1.5/0.01024)))
   806  00AB  20BF  3180         	fcall	PL2	;call to abstracted procedure
   807  00AD                     L2:	
   808  00AD  3182  221F  3180   	fcall	___lwtoft
   809  00B0  0837               	movf	?___lwtoft,w
   810  00B1  00B4               	movwf	?___ftge+3
   811  00B2  0838               	movf	?___lwtoft+1,w
   812  00B3  00B5               	movwf	?___ftge+4
   813  00B4  0839               	movf	?___lwtoft+2,w
   814  00B5  00B6               	movwf	?___ftge+5
   815  00B6  3181  21D0  3180   	fcall	___ftge
   816  00B9  1803               	btfsc	3,0
   817  00BA  28BD               	goto	l2632
   818                           
   819                           ;zuvo300_main.c: 301: {
   820                           ;zuvo300_main.c: 302: tBuzzer_FlashCnt =0;
   821  00BB  01A4               	clrf	system_output@tBuzzer_FlashCnt
   822  00BC  01A5               	clrf	system_output@tBuzzer_FlashCnt+1
   823  00BD                     l2632:	
   824                           
   825                           ;zuvo300_main.c: 303: }
   826                           ;zuvo300_main.c: 306: Buzzer(ttmp);
   827  00BD  0879               	movf	system_output@ttmp,w
   828  00BE  2A31               	ljmp	_Buzzer
   829  00BF                     __end_of_system_output:	
   830  00BF                     PL2:	
   831  00BF  307C               	movlw	124
   832  00C0  00B1               	movwf	?___ftge
   833  00C1  3092               	movlw	146
   834  00C2  00B2               	movwf	?___ftge+1
   835  00C3  3043               	movlw	67
   836  00C4  00B3               	movwf	?___ftge+2
   837  00C5  0825               	movf	system_output@tBuzzer_FlashCnt+1,w
   838  00C6  00B8               	movwf	?___lwtoft+1
   839  00C7  0824               	movf	system_output@tBuzzer_FlashCnt,w
   840  00C8  00B7               	movwf	?___lwtoft
   841  00C9  0008               	return
   842  00CA                     PL3:	
   843  00CA  3050               	movlw	80
   844  00CB  00B1               	movwf	?___ftge
   845  00CC  3043               	movlw	67
   846  00CD  00B2               	movwf	?___ftge+1
   847  00CE  00B3               	movwf	?___ftge+2
   848  00CF  0827               	movf	system_output@tLED_FlashCnt+1,w
   849  00D0  00B8               	movwf	?___lwtoft+1
   850  00D1  0826               	movf	system_output@tLED_FlashCnt,w
   851  00D2  00B7               	movwf	?___lwtoft
   852  00D3  0008               	return
   853                           
   854                           	psect	text378
   855  0119                     __ptext378:	
   856 ;; =============== function _system_output ends ============
   857                           
   858                           
   859 ;; *************** function _system_process *****************
   860 ;; Defined at:
   861 ;;		line 222 in file "C:\working\microchip\Firmware_Test1\src\zuvo300_main.c"
   862 ;; Parameters:    Size  Location     Type
   863 ;;		None
   864 ;; Auto vars:     Size  Location     Type
   865 ;;  tFC             1    9[BANK0 ] unsigned char 
   866 ;; Return value:  Size  Location     Type
   867 ;;		None               void
   868 ;; Registers used:
   869 ;;		wreg, fsr0l, fsr0h, status,2, status,0, pclath, cstack
   870 ;; Tracked objects:
   871 ;;		On entry : 17F/0
   872 ;;		On exit  : 17F/0
   873 ;;		Unchanged: FFE80/0
   874 ;; Data sizes:     COMMON   BANK0   BANK1
   875 ;;      Params:         0       0       0
   876 ;;      Locals:         0       1       0
   877 ;;      Temps:          0       0       0
   878 ;;      Totals:         0       1       0
   879 ;;Total ram usage:        1 bytes
   880 ;; Hardware stack levels used:    1
   881 ;; Hardware stack levels required when called:    3
   882 ;; This function calls:
   883 ;;		_FS_RD
   884 ;;		_UVL
   885 ;;		___lwtoft
   886 ;;		___ftge
   887 ;;		_system_1s
   888 ;; This function is called by:
   889 ;;		_main
   890 ;; This function uses a non-reentrant model
   891 ;;
   892  0119                     _system_process:	
   893                           
   894                           ;zuvo300_main.c: 230: tFC = FS_RD(mFS_Cnt);
   895                           
   896                           ; Regs used in _system_process: [wreg-fsr0h+status,2+status,0+pclath+cstack]
   897  0119  082D               	movf	_mFS_Cnt,w
   898  011A  3182  2243  3181   	fcall	_FS_RD
   899  011D  00BA               	movwf	system_process@tFC
   900                           
   901                           ;zuvo300_main.c: 232: if (tFC != 0)
   902  011E  083A               	movf	system_process@tFC,w
   903  011F  1903               	btfsc	3,2
   904  0120  2926               	goto	l2576
   905                           
   906                           ;zuvo300_main.c: 233: tDelay=300;
   907  0121  302C               	movlw	44
   908  0122  00A8               	movwf	system_process@tDelay
   909  0123  3001               	movlw	1
   910  0124  00A9               	movwf	system_process@tDelay+1
   911  0125  292E               	goto	l2580
   912  0126                     l2576:	
   913                           
   914                           ;zuvo300_main.c: 234: else if (tDelay > 0)
   915  0126  0829               	movf	system_process@tDelay+1,w
   916  0127  0428               	iorwf	system_process@tDelay,w
   917  0128  1903               	skipnz
   918  0129  292E               	goto	l2580
   919                           
   920                           ;zuvo300_main.c: 235: tDelay--;
   921  012A  3001               	movlw	1
   922  012B  02A8               	subwf	system_process@tDelay,f
   923  012C  3000               	movlw	0
   924  012D  3BA9               	subwfb	system_process@tDelay+1,f
   925  012E                     l2580:	
   926                           
   927                           ;zuvo300_main.c: 237: if (tDelay == 0)
   928  012E  0829               	movf	system_process@tDelay+1,w
   929  012F  0428               	iorwf	system_process@tDelay,w
   930  0130  1D03               	skipz
   931  0131  2934               	goto	l1230
   932                           
   933                           ;zuvo300_main.c: 238: mUVL = 0;
   934  0132  01BB               	clrf	_mUVL
   935  0133  2936               	goto	l2584
   936  0134                     l1230:	
   937                           
   938                           ;zuvo300_main.c: 239: else
   939                           ;zuvo300_main.c: 240: mUVL = 1;
   940  0134  01BB               	clrf	_mUVL
   941  0135  0ABB               	incf	_mUVL,f
   942  0136                     l2584:	
   943                           
   944                           ;zuvo300_main.c: 244: UVL(mUVL);
   945  0136  083B               	movf	_mUVL,w
   946  0137  3182  2270  3181   	fcall	_UVL
   947                           
   948                           ;zuvo300_main.c: 247: tTMR_1S_CNT ++;
   949  013A  0020               	movlb	0	; select bank0
   950  013B  0AAA               	incf	system_process@tTMR_1S_CNT,f
   951  013C  1903               	skipnz
   952  013D  0AAB               	incf	system_process@tTMR_1S_CNT+1,f
   953                           
   954                           ;zuvo300_main.c: 248: if (tTMR_1S_CNT >= (1/0.01024))
   955  013E  082B               	movf	system_process@tTMR_1S_CNT+1,w
   956  013F  00B8               	movwf	?___lwtoft+1
   957  0140  082A               	movf	system_process@tTMR_1S_CNT,w
   958  0141  00B7               	movwf	?___lwtoft
   959  0142  3182  221F  3181   	fcall	___lwtoft
   960  0145  0837               	movf	?___lwtoft,w
   961  0146  00B1               	movwf	?___ftge
   962  0147  0838               	movf	?___lwtoft+1,w
   963  0148  00B2               	movwf	?___ftge+1
   964  0149  0839               	movf	?___lwtoft+2,w
   965  014A  00B3               	movwf	?___ftge+2
   966  014B  3050               	movlw	80
   967  014C  00B4               	movwf	?___ftge+3
   968  014D  30C3               	movlw	195
   969  014E  00B5               	movwf	?___ftge+4
   970  014F  3042               	movlw	66
   971  0150  00B6               	movwf	?___ftge+5
   972  0151  3181  21D0  3181   	fcall	___ftge
   973  0154  1C03               	btfss	3,0
   974  0155  0008               	return
   975                           
   976                           ;zuvo300_main.c: 249: {
   977                           ;zuvo300_main.c: 250: tTMR_1S_CNT =0;
   978  0156  01AA               	clrf	system_process@tTMR_1S_CNT
   979  0157  01AB               	clrf	system_process@tTMR_1S_CNT+1
   980                           
   981                           ;zuvo300_main.c: 251: system_1s();
   982  0158  28D4               	ljmp	l2532
   983  0159                     __end_of_system_process:	
   984                           
   985                           	psect	text379
   986  021F                     __ptext379:	
   987 ;; =============== function _system_process ends ============
   988                           
   989                           
   990 ;; *************** function ___lwtoft *****************
   991 ;; Defined at:
   992 ;;		line 29 in file "C:\Program Files\HI-TECH Software\PICC\9.71a\sources\lwtoft.c"
   993 ;; Parameters:    Size  Location     Type
   994 ;;  c               2    6[BANK0 ] unsigned int 
   995 ;; Auto vars:     Size  Location     Type
   996 ;;		None
   997 ;; Return value:  Size  Location     Type
   998 ;;                  3    6[BANK0 ] float 
   999 ;; Registers used:
  1000 ;;		wreg, status,2, status,0, pclath, cstack
  1001 ;; Tracked objects:
  1002 ;;		On entry : 17F/0
  1003 ;;		On exit  : 17F/0
  1004 ;;		Unchanged: FFE80/0
  1005 ;; Data sizes:     COMMON   BANK0   BANK1
  1006 ;;      Params:         0       3       0
  1007 ;;      Locals:         0       0       0
  1008 ;;      Temps:          0       0       0
  1009 ;;      Totals:         0       3       0
  1010 ;;Total ram usage:        3 bytes
  1011 ;; Hardware stack levels used:    1
  1012 ;; Hardware stack levels required when called:    2
  1013 ;; This function calls:
  1014 ;;		___ftpack
  1015 ;; This function is called by:
  1016 ;;		_system_process
  1017 ;;		_system_output
  1018 ;; This function uses a non-reentrant model
  1019 ;;
  1020  021F                     ___lwtoft:	
  1021                           
  1022                           ; Regs used in ___lwtoft: [wreg+status,2+status,0+pclath+cstack]
  1023  021F  0837               	movf	___lwtoft@c,w
  1024  0220  00F1               	movwf	?___ftpack
  1025  0221  0838               	movf	___lwtoft@c+1,w
  1026  0222  00F2               	movwf	?___ftpack+1
  1027  0223  01F3               	clrf	?___ftpack+2
  1028  0224  308E               	movlw	142
  1029  0225  00F4               	movwf	?___ftpack+3
  1030  0226  01F5               	clrf	?___ftpack+4
  1031  0227  3181  2196  3182   	fcall	___ftpack
  1032  022A  0871               	movf	?___ftpack,w
  1033  022B  00B7               	movwf	?___lwtoft
  1034  022C  0872               	movf	?___ftpack+1,w
  1035  022D  00B8               	movwf	?___lwtoft+1
  1036  022E  0873               	movf	?___ftpack+2,w
  1037  022F  00B9               	movwf	?___lwtoft+2
  1038  0230  0008               	return
  1039  0231                     __end_of___lwtoft:	
  1040                           
  1041                           	psect	text380
  1042  00D4                     __ptext380:	
  1043 ;; =============== function ___lwtoft ends ============
  1044                           
  1045                           
  1046 ;; *************** function _system_1s *****************
  1047 ;; Defined at:
  1048 ;;		line 169 in file "C:\working\microchip\Firmware_Test1\src\zuvo300_main.c"
  1049 ;; Parameters:    Size  Location     Type
  1050 ;;		None
  1051 ;; Auto vars:     Size  Location     Type
  1052 ;;		None
  1053 ;; Return value:  Size  Location     Type
  1054 ;;		None               void
  1055 ;; Registers used:
  1056 ;;		wreg, fsr0l, fsr0h, status,2, status,0, pclath, cstack
  1057 ;; Tracked objects:
  1058 ;;		On entry : 17F/0
  1059 ;;		On exit  : 17F/0
  1060 ;;		Unchanged: FFE80/0
  1061 ;; Data sizes:     COMMON   BANK0   BANK1
  1062 ;;      Params:         0       0       0
  1063 ;;      Locals:         0       0       0
  1064 ;;      Temps:          0       0       0
  1065 ;;      Totals:         0       0       0
  1066 ;;Total ram usage:        0 bytes
  1067 ;; Hardware stack levels used:    1
  1068 ;; Hardware stack levels required when called:    2
  1069 ;; This function calls:
  1070 ;;		_RFID_RD
  1071 ;; This function is called by:
  1072 ;;		_system_process
  1073 ;; This function uses a non-reentrant model
  1074 ;;
  1075  00D4                     _system_1s:	
  1076  00D4                     l2532:	
  1077                           ; Regs used in _system_1s: [wreg-fsr0h+status,2+status,0+pclath+cstack]
  1078                           
  1079                           
  1080                           ;zuvo300_main.c: 170: static unsigned char tSec=60;
  1081                           ;zuvo300_main.c: 174: switch (tSec)
  1082  00D4  28E7               	goto	l2550
  1083  00D5                     l1209:	
  1084                           ;zuvo300_main.c: 175: {
  1085                           ;zuvo300_main.c: 176: case 0:
  1086                           
  1087                           
  1088                           ;zuvo300_main.c: 177: mLED_Color = 0x01;
  1089  00D5  01FC               	clrf	_mLED_Color
  1090  00D6  0AFC               	incf	_mLED_Color,f
  1091                           
  1092                           ;zuvo300_main.c: 179: break;
  1093  00D7  2900               	goto	l2552
  1094  00D8                     l2534:	
  1095                           
  1096                           ;zuvo300_main.c: 181: mLED_Color = 0x82;
  1097  00D8  3082               	movlw	130
  1098  00D9  28E5               	goto	L8
  1099  00DA                     l2536:	
  1100                           ;zuvo300_main.c: 183: break;
  1101                           
  1102                           
  1103                           ;zuvo300_main.c: 185: mLED_Color = 0x02;
  1104  00DA  3002               	movlw	2
  1105  00DB  28E5               	goto	L8
  1106  00DC                     l2538:	
  1107                           ;zuvo300_main.c: 187: break;
  1108                           
  1109                           
  1110                           ;zuvo300_main.c: 189: mLED_Color = 0x05;
  1111  00DC  3005               	movlw	5
  1112  00DD  28E5               	goto	L8
  1113  00DE                     l2540:	
  1114                           ;zuvo300_main.c: 191: break;
  1115                           
  1116                           
  1117                           ;zuvo300_main.c: 193: mLED_Color = 0x84;
  1118  00DE  3084               	movlw	132
  1119  00DF  28E5               	goto	L8
  1120  00E0                     l2542:	
  1121                           ;zuvo300_main.c: 195: break;
  1122                           
  1123                           
  1124                           ;zuvo300_main.c: 197: mLED_Color = 0x04;
  1125  00E0  3004               	movlw	4
  1126  00E1  28E5               	goto	L8
  1127  00E2                     l2544:	
  1128                           ;zuvo300_main.c: 199: break;
  1129                           
  1130                           
  1131                           ;zuvo300_main.c: 201: mLED_Color = 0xD4;
  1132  00E2  30D4               	movlw	212
  1133  00E3  28E5               	goto	L8
  1134  00E4                     l2546:	
  1135                           ;zuvo300_main.c: 203: break;
  1136                           
  1137                           
  1138                           ;zuvo300_main.c: 205: mLED_Color = 0x94;
  1139  00E4  3094               	movlw	148
  1140  00E5                     L8:	
  1141  00E5  00FC               	movwf	_mLED_Color
  1142                           
  1143                           ;zuvo300_main.c: 207: break;
  1144  00E6  2900               	goto	l2552
  1145  00E7                     l2550:	
  1146  00E7  083C               	movf	system_1s@tSec,w
  1147                           
  1148                           ; Switch size 1, requested type "space"
  1149                           ; Number of cases is 8, Range of values is 0 to 105
  1150                           ; switch strategies available:
  1151                           ; Name         Bytes Cycles
  1152                           ; simple_byte    25    13 (average)
  1153                           ; direct_byte   228    16 (fixed)
  1154                           ;	Chosen strategy is simple_byte
  1155  00E8  3A00               	xorlw	0	; case 0
  1156  00E9  1903               	skipnz
  1157  00EA  28D5               	goto	l1209
  1158  00EB  3A0F               	xorlw	15	; case 15
  1159  00EC  1903               	skipnz
  1160  00ED  28D8               	goto	l2534
  1161  00EE  3A11               	xorlw	17	; case 30
  1162  00EF  1903               	skipnz
  1163  00F0  28DA               	goto	l2536
  1164  00F1  3A33               	xorlw	51	; case 45
  1165  00F2  1903               	skipnz
  1166  00F3  28DC               	goto	l2538
  1167  00F4  3A11               	xorlw	17	; case 60
  1168  00F5  1903               	skipnz
  1169  00F6  28DE               	goto	l2540
  1170  00F7  3A77               	xorlw	119	; case 75
  1171  00F8  1903               	skipnz
  1172  00F9  28E0               	goto	l2542
  1173  00FA  3A11               	xorlw	17	; case 90
  1174  00FB  1903               	skipnz
  1175  00FC  28E2               	goto	l2544
  1176  00FD  3A33               	xorlw	51	; case 105
  1177  00FE  1903               	skipnz
  1178  00FF  28E4               	goto	l2546
  1179  0100                     l2552:	
  1180                           
  1181                           ;zuvo300_main.c: 210: tSec ++;
  1182  0100  0ABC               	incf	system_1s@tSec,f
  1183                           
  1184                           ;zuvo300_main.c: 211: if (tSec >= 120)
  1185  0101  3078               	movlw	120
  1186  0102  023C               	subwf	system_1s@tSec,w
  1187  0103  1803               	btfsc	3,0
  1188                           
  1189                           ;zuvo300_main.c: 212: tSec = 0;
  1190  0104  01BC               	clrf	system_1s@tSec
  1191                           
  1192                           ;zuvo300_main.c: 214: mRFID = RFID_RD();
  1193  0105  3181  2159  3180   	fcall	_RFID_RD
  1194  0108  0874               	movf	?_RFID_RD+3,w
  1195  0109  00A3               	movwf	_mRFID+3
  1196  010A  0873               	movf	?_RFID_RD+2,w
  1197  010B  00A2               	movwf	_mRFID+2
  1198  010C  0872               	movf	?_RFID_RD+1,w
  1199  010D  00A1               	movwf	_mRFID+1
  1200  010E  0871               	movf	?_RFID_RD,w
  1201  010F  00A0               	movwf	_mRFID
  1202                           
  1203                           ;zuvo300_main.c: 216: if (mRFID ==0)
  1204  0110  0823               	movf	_mRFID+3,w
  1205  0111  0422               	iorwf	_mRFID+2,w
  1206  0112  0421               	iorwf	_mRFID+1,w
  1207  0113  0420               	iorwf	_mRFID,w
  1208  0114  1D03               	skipz
  1209  0115  0008               	return
  1210                           
  1211                           ;zuvo300_main.c: 217: mBuzzer = mBuzzer ^ 0x01;
  1212  0116  3001               	movlw	1
  1213  0117  06FB               	xorwf	_mBuzzer,f
  1214  0118  0008               	return
  1215  0119                     __end_of_system_1s:	
  1216                           
  1217                           	psect	text381
  1218  01D0                     __ptext381:	
  1219 ;; =============== function _system_1s ends ============
  1220                           
  1221                           
  1222 ;; *************** function ___ftge *****************
  1223 ;; Defined at:
  1224 ;;		line 5 in file "C:\Program Files\HI-TECH Software\PICC\9.71a\sources\ftge.c"
  1225 ;; Parameters:    Size  Location     Type
  1226 ;;  ff1             3    0[BANK0 ] float 
  1227 ;;  ff2             3    3[BANK0 ] float 
  1228 ;; Auto vars:     Size  Location     Type
  1229 ;;		None
  1230 ;; Return value:  Size  Location     Type
  1231 ;;		None               void
  1232 ;; Registers used:
  1233 ;;		wreg, status,2, status,0
  1234 ;; Tracked objects:
  1235 ;;		On entry : 17F/0
  1236 ;;		On exit  : 17F/0
  1237 ;;		Unchanged: FFE80/0
  1238 ;; Data sizes:     COMMON   BANK0   BANK1
  1239 ;;      Params:         0       6       0
  1240 ;;      Locals:         0       0       0
  1241 ;;      Temps:          0       0       0
  1242 ;;      Totals:         0       6       0
  1243 ;;Total ram usage:        6 bytes
  1244 ;; Hardware stack levels used:    1
  1245 ;; Hardware stack levels required when called:    1
  1246 ;; This function calls:
  1247 ;;		Nothing
  1248 ;; This function is called by:
  1249 ;;		_system_process
  1250 ;;		_system_output
  1251 ;; This function uses a non-reentrant model
  1252 ;;
  1253  01D0                     ___ftge:	
  1254                           
  1255                           ; Regs used in ___ftge: [wreg+status,2+status,0]
  1256  01D0  1FB3               	btfss	___ftge@ff1+2,7
  1257  01D1  29DF               	goto	l2516
  1258  01D2  0831               	movf	___ftge@ff1,w
  1259  01D3  3C00               	sublw	0
  1260  01D4  00B1               	movwf	___ftge@ff1
  1261  01D5  0832               	movf	___ftge@ff1+1,w
  1262  01D6  1C03               	skipc
  1263  01D7  0F32               	incfsz	___ftge@ff1+1,w
  1264  01D8  3C00               	sublw	0
  1265  01D9  00B2               	movwf	___ftge@ff1+1
  1266  01DA  0833               	movf	___ftge@ff1+2,w
  1267  01DB  1C03               	skipc
  1268  01DC  0F33               	incfsz	___ftge@ff1+2,w
  1269  01DD  3C80               	sublw	128
  1270  01DE  00B3               	movwf	___ftge@ff1+2
  1271  01DF                     l2516:	
  1272  01DF  1FB6               	btfss	___ftge@ff2+2,7
  1273  01E0  29EE               	goto	l2520
  1274  01E1  0834               	movf	___ftge@ff2,w
  1275  01E2  3C00               	sublw	0
  1276  01E3  00B4               	movwf	___ftge@ff2
  1277  01E4  0835               	movf	___ftge@ff2+1,w
  1278  01E5  1C03               	skipc
  1279  01E6  0F35               	incfsz	___ftge@ff2+1,w
  1280  01E7  3C00               	sublw	0
  1281  01E8  00B5               	movwf	___ftge@ff2+1
  1282  01E9  0836               	movf	___ftge@ff2+2,w
  1283  01EA  1C03               	skipc
  1284  01EB  0F36               	incfsz	___ftge@ff2+2,w
  1285  01EC  3C80               	sublw	128
  1286  01ED  00B6               	movwf	___ftge@ff2+2
  1287  01EE                     l2520:	
  1288  01EE  3080               	movlw	128
  1289  01EF  06B3               	xorwf	___ftge@ff1+2,f
  1290  01F0  06B6               	xorwf	___ftge@ff2+2,f
  1291  01F1  0836               	movf	___ftge@ff2+2,w
  1292  01F2  0233               	subwf	___ftge@ff1+2,w
  1293  01F3  1D03               	skipz
  1294  01F4  0008               	return
  1295  01F5  0835               	movf	___ftge@ff2+1,w
  1296  01F6  0232               	subwf	___ftge@ff1+1,w
  1297  01F7  1D03               	skipz
  1298  01F8  0008               	return
  1299  01F9  0834               	movf	___ftge@ff2,w
  1300  01FA  0231               	subwf	___ftge@ff1,w
  1301  01FB  0008               	return
  1302  01FC                     __end_of___ftge:	
  1303                           
  1304                           	psect	text382
  1305  0196                     __ptext382:	
  1306 ;; =============== function ___ftge ends ============
  1307                           
  1308                           
  1309 ;; *************** function ___ftpack *****************
  1310 ;; Defined at:
  1311 ;;		line 63 in file "C:\Program Files\HI-TECH Software\PICC\9.71a\sources\float.c"
  1312 ;; Parameters:    Size  Location     Type
  1313 ;;  arg             3    1[COMMON] unsigned um
  1314 ;;  exp             1    4[COMMON] unsigned char 
  1315 ;;  sign            1    5[COMMON] unsigned char 
  1316 ;; Auto vars:     Size  Location     Type
  1317 ;;		None
  1318 ;; Return value:  Size  Location     Type
  1319 ;;                  3    1[COMMON] float 
  1320 ;; Registers used:
  1321 ;;		wreg, status,2, status,0
  1322 ;; Tracked objects:
  1323 ;;		On entry : 17F/0
  1324 ;;		On exit  : 17F/0
  1325 ;;		Unchanged: FFE80/0
  1326 ;; Data sizes:     COMMON   BANK0   BANK1
  1327 ;;      Params:         5       0       0
  1328 ;;      Locals:         0       0       0
  1329 ;;      Temps:          3       0       0
  1330 ;;      Totals:         8       0       0
  1331 ;;Total ram usage:        8 bytes
  1332 ;; Hardware stack levels used:    1
  1333 ;; Hardware stack levels required when called:    1
  1334 ;; This function calls:
  1335 ;;		Nothing
  1336 ;; This function is called by:
  1337 ;;		___lwtoft
  1338 ;; This function uses a non-reentrant model
  1339 ;;
  1340  0196                     ___ftpack:	
  1341                           
  1342                           ; Regs used in ___ftpack: [wreg+status,2+status,0]
  1343  0196  0874               	movf	___ftpack@exp,w
  1344  0197  1903               	btfsc	3,2
  1345  0198  299E               	goto	l2488
  1346  0199  0873               	movf	___ftpack@arg+2,w
  1347  019A  0472               	iorwf	___ftpack@arg+1,w
  1348  019B  0471               	iorwf	___ftpack@arg,w
  1349  019C  1D03               	skipz
  1350  019D  29A6               	goto	l2494
  1351  019E                     l2488:	
  1352  019E  01F1               	clrf	?___ftpack
  1353  019F  01F2               	clrf	?___ftpack+1
  1354  01A0  01F3               	clrf	?___ftpack+2
  1355  01A1  0008               	return
  1356  01A2                     l2492:	
  1357  01A2  0AF4               	incf	___ftpack@exp,f
  1358  01A3  36F3               	lsrf	___ftpack@arg+2,f
  1359  01A4  0CF2               	rrf	___ftpack@arg+1,f
  1360  01A5  0CF1               	rrf	___ftpack@arg,f
  1361  01A6                     l2494:	
  1362  01A6  30FE               	movlw	254
  1363  01A7  0573               	andwf	___ftpack@arg+2,w
  1364  01A8  1903               	btfsc	3,2
  1365  01A9  29B4               	goto	l2498
  1366  01AA  29A2               	goto	l2492
  1367  01AB                     l2496:	
  1368  01AB  0AF4               	incf	___ftpack@exp,f
  1369  01AC  0AF1               	incf	___ftpack@arg,f
  1370  01AD  1903               	skipnz
  1371  01AE  0AF2               	incf	___ftpack@arg+1,f
  1372  01AF  1903               	skipnz
  1373  01B0  0AF3               	incf	___ftpack@arg+2,f
  1374  01B1  36F3               	lsrf	___ftpack@arg+2,f
  1375  01B2  0CF2               	rrf	___ftpack@arg+1,f
  1376  01B3  0CF1               	rrf	___ftpack@arg,f
  1377  01B4                     l2498:	
  1378  01B4  30FF               	movlw	255
  1379  01B5  0573               	andwf	___ftpack@arg+2,w
  1380  01B6  1903               	btfsc	3,2
  1381  01B7  29BD               	goto	l2502
  1382  01B8  29AB               	goto	l2496
  1383  01B9                     l2500:	
  1384  01B9  03F4               	decf	___ftpack@exp,f
  1385  01BA  35F1               	lslf	___ftpack@arg,f
  1386  01BB  0DF2               	rlf	___ftpack@arg+1,f
  1387  01BC  0DF3               	rlf	___ftpack@arg+2,f
  1388  01BD                     l2502:	
  1389  01BD  1FF2               	btfss	___ftpack@arg+1,7
  1390  01BE  29B9               	goto	l2500
  1391  01BF  1C74               	btfss	___ftpack@exp,0
  1392  01C0  13F2               	bcf	___ftpack@arg+1,7
  1393  01C1  36F4               	lsrf	___ftpack@exp,f
  1394  01C2  0874               	movf	___ftpack@exp,w
  1395  01C3  00F8               	movwf	??___ftpack+2
  1396  01C4  01F7               	clrf	??___ftpack+1
  1397  01C5  01F6               	clrf	??___ftpack
  1398  01C6  0876               	movf	??___ftpack,w
  1399  01C7  04F1               	iorwf	___ftpack@arg,f
  1400  01C8  0877               	movf	??___ftpack+1,w
  1401  01C9  04F2               	iorwf	___ftpack@arg+1,f
  1402  01CA  0878               	movf	??___ftpack+2,w
  1403  01CB  04F3               	iorwf	___ftpack@arg+2,f
  1404  01CC  0875               	movf	___ftpack@sign,w
  1405  01CD  1D03               	skipz
  1406  01CE  17F3               	bsf	___ftpack@arg+2,7
  1407  01CF  0008               	return
  1408  01D0                     __end_of___ftpack:	
  1409                           
  1410                           	psect	text383
  1411  0231                     __ptext383:	
  1412 ;; =============== function ___ftpack ends ============
  1413                           
  1414                           
  1415 ;; *************** function _Buzzer *****************
  1416 ;; Defined at:
  1417 ;;		line 325 in file "C:\working\microchip\Firmware_Test1\src\zuvo300_main.c"
  1418 ;; Parameters:    Size  Location     Type
  1419 ;;  iVal            1    wreg     unsigned char 
  1420 ;; Auto vars:     Size  Location     Type
  1421 ;;  iVal            1    2[COMMON] unsigned char 
  1422 ;;  tPort           1    3[COMMON] unsigned char 
  1423 ;; Return value:  Size  Location     Type
  1424 ;;		None               void
  1425 ;; Registers used:
  1426 ;;		wreg, status,2, status,0
  1427 ;; Tracked objects:
  1428 ;;		On entry : 17F/0
  1429 ;;		On exit  : 17F/2
  1430 ;;		Unchanged: FFE80/0
  1431 ;; Data sizes:     COMMON   BANK0   BANK1
  1432 ;;      Params:         0       0       0
  1433 ;;      Locals:         2       0       0
  1434 ;;      Temps:          1       0       0
  1435 ;;      Totals:         3       0       0
  1436 ;;Total ram usage:        3 bytes
  1437 ;; Hardware stack levels used:    1
  1438 ;; Hardware stack levels required when called:    1
  1439 ;; This function calls:
  1440 ;;		Nothing
  1441 ;; This function is called by:
  1442 ;;		_system_output
  1443 ;; This function uses a non-reentrant model
  1444 ;;
  1445  0231                     _Buzzer:	
  1446                           
  1447                           ; Regs used in _Buzzer: [wreg+status,2+status,0]
  1448                           ;Buzzer@iVal stored from wreg
  1449  0231  00F2               	movwf	Buzzer@iVal
  1450                           
  1451                           ;zuvo300_main.c: 326: unsigned char tPort;
  1452                           ;zuvo300_main.c: 328: tPort = LATC & (~(1<<5));
  1453  0232  0022               	movlb	2	; select bank2
  1454  0233  080E               	movf	14,w
  1455  0234  00F3               	movwf	Buzzer@tPort
  1456  0235  12F3               	bcf	Buzzer@tPort,5
  1457                           
  1458                           ;zuvo300_main.c: 329: tPort = tPort | ((iVal & 0x01)<<5);
  1459  0236  0872               	movf	Buzzer@iVal,w
  1460  0237  3901               	andlw	1
  1461  0238  00F1               	movwf	??_Buzzer
  1462  0239  3004               	movlw	4
  1463  023A                     u455:	
  1464  023A  35F1               	lslf	??_Buzzer,f
  1465  023B  3EFF               	addlw	-1
  1466  023C  1D03               	skipz
  1467  023D  2A3A               	goto	u455
  1468  023E  3571               	lslf	??_Buzzer,w
  1469  023F  04F3               	iorwf	Buzzer@tPort,f
  1470                           
  1471                           ;zuvo300_main.c: 330: LATC = tPort;
  1472  0240  0873               	movf	Buzzer@tPort,w
  1473  0241  008E               	movwf	14	;volatile
  1474  0242  0008               	return
  1475  0243                     __end_of_Buzzer:	
  1476                           
  1477                           	psect	text384
  1478  0262                     __ptext384:	
  1479 ;; =============== function _Buzzer ends ============
  1480                           
  1481                           
  1482 ;; *************** function _LED_RGB *****************
  1483 ;; Defined at:
  1484 ;;		line 314 in file "C:\working\microchip\Firmware_Test1\src\zuvo300_main.c"
  1485 ;; Parameters:    Size  Location     Type
  1486 ;;  iVal            1    wreg     unsigned char 
  1487 ;; Auto vars:     Size  Location     Type
  1488 ;;  iVal            1    1[COMMON] unsigned char 
  1489 ;;  tPort           1    2[COMMON] unsigned char 
  1490 ;; Return value:  Size  Location     Type
  1491 ;;		None               void
  1492 ;; Registers used:
  1493 ;;		wreg, status,2, status,0
  1494 ;; Tracked objects:
  1495 ;;		On entry : 17F/0
  1496 ;;		On exit  : 17F/2
  1497 ;;		Unchanged: FFE80/0
  1498 ;; Data sizes:     COMMON   BANK0   BANK1
  1499 ;;      Params:         0       0       0
  1500 ;;      Locals:         2       0       0
  1501 ;;      Temps:          0       0       0
  1502 ;;      Totals:         2       0       0
  1503 ;;Total ram usage:        2 bytes
  1504 ;; Hardware stack levels used:    1
  1505 ;; Hardware stack levels required when called:    1
  1506 ;; This function calls:
  1507 ;;		Nothing
  1508 ;; This function is called by:
  1509 ;;		_system_output
  1510 ;; This function uses a non-reentrant model
  1511 ;;
  1512  0262                     _LED_RGB:	
  1513                           
  1514                           ; Regs used in _LED_RGB: [wreg+status,2+status,0]
  1515                           ;LED_RGB@iVal stored from wreg
  1516  0262  00F1               	movwf	LED_RGB@iVal
  1517                           
  1518                           ;zuvo300_main.c: 316: unsigned char tPort;
  1519                           ;zuvo300_main.c: 318: tPort = LATC & (~(0x07<<2));
  1520  0263  0022               	movlb	2	; select bank2
  1521  0264  080E               	movf	14,w
  1522  0265  00F2               	movwf	LED_RGB@tPort
  1523  0266  30E3               	movlw	227
  1524  0267  05F2               	andwf	LED_RGB@tPort,f
  1525                           
  1526                           ;zuvo300_main.c: 319: tPort = tPort | ((~iVal & 0x07)<<2);
  1527  0268  0971               	comf	LED_RGB@iVal,w
  1528  0269  3907               	andlw	7
  1529  026A  0709               	addwf	9,w
  1530  026B  0709               	addwf	9,w
  1531  026C  04F2               	iorwf	LED_RGB@tPort,f
  1532                           
  1533                           ;zuvo300_main.c: 320: LATC = tPort;
  1534  026D  0872               	movf	LED_RGB@tPort,w
  1535  026E  008E               	movwf	14	;volatile
  1536  026F  0008               	return
  1537  0270                     __end_of_LED_RGB:	
  1538                           
  1539                           	psect	text385
  1540  0270                     __ptext385:	
  1541 ;; =============== function _LED_RGB ends ============
  1542                           
  1543                           
  1544 ;; *************** function _UVL *****************
  1545 ;; Defined at:
  1546 ;;		line 336 in file "C:\working\microchip\Firmware_Test1\src\zuvo300_main.c"
  1547 ;; Parameters:    Size  Location     Type
  1548 ;;  iVal            1    wreg     unsigned char 
  1549 ;; Auto vars:     Size  Location     Type
  1550 ;;  iVal            1    1[COMMON] unsigned char 
  1551 ;;  tPort           1    2[COMMON] unsigned char 
  1552 ;; Return value:  Size  Location     Type
  1553 ;;		None               void
  1554 ;; Registers used:
  1555 ;;		wreg, status,2, status,0
  1556 ;; Tracked objects:
  1557 ;;		On entry : 17F/0
  1558 ;;		On exit  : 17F/2
  1559 ;;		Unchanged: FFE80/0
  1560 ;; Data sizes:     COMMON   BANK0   BANK1
  1561 ;;      Params:         0       0       0
  1562 ;;      Locals:         2       0       0
  1563 ;;      Temps:          0       0       0
  1564 ;;      Totals:         2       0       0
  1565 ;;Total ram usage:        2 bytes
  1566 ;; Hardware stack levels used:    1
  1567 ;; Hardware stack levels required when called:    1
  1568 ;; This function calls:
  1569 ;;		Nothing
  1570 ;; This function is called by:
  1571 ;;		_system_process
  1572 ;; This function uses a non-reentrant model
  1573 ;;
  1574  0270                     _UVL:	
  1575                           
  1576                           ; Regs used in _UVL: [wreg+status,2+status,0]
  1577                           ;UVL@iVal stored from wreg
  1578  0270  00F1               	movwf	UVL@iVal
  1579                           
  1580                           ;zuvo300_main.c: 337: unsigned char tPort;
  1581                           ;zuvo300_main.c: 339: tPort = LATC & (~(1<<0));
  1582  0271  0022               	movlb	2	; select bank2
  1583  0272  080E               	movf	14,w
  1584  0273  00F2               	movwf	UVL@tPort
  1585  0274  1072               	bcf	UVL@tPort,0
  1586                           
  1587                           ;zuvo300_main.c: 340: tPort = tPort | ((iVal & 0x01)<<0);
  1588  0275  0871               	movf	UVL@iVal,w
  1589  0276  3901               	andlw	1
  1590  0277  04F2               	iorwf	UVL@tPort,f
  1591                           
  1592                           ;zuvo300_main.c: 341: LATC = tPort;
  1593  0278  0872               	movf	UVL@tPort,w
  1594  0279  008E               	movwf	14	;volatile
  1595  027A  0008               	return
  1596  027B                     __end_of_UVL:	
  1597                           
  1598                           	psect	text386
  1599  0243                     __ptext386:	
  1600 ;; =============== function _UVL ends ============
  1601                           
  1602                           
  1603 ;; *************** function _FS_RD *****************
  1604 ;; Defined at:
  1605 ;;		line 349 in file "C:\working\microchip\Firmware_Test1\src\zuvo300_main.c"
  1606 ;; Parameters:    Size  Location     Type
  1607 ;;  iFS             1    wreg     unsigned char 
  1608 ;; Auto vars:     Size  Location     Type
  1609 ;;  iFS             1    3[COMMON] unsigned char 
  1610 ;;  tFS             2    1[COMMON] unsigned int 
  1611 ;; Return value:  Size  Location     Type
  1612 ;;                  1    wreg      unsigned char 
  1613 ;; Registers used:
  1614 ;;		wreg, status,2
  1615 ;; Tracked objects:
  1616 ;;		On entry : 17F/0
  1617 ;;		On exit  : 17F/0
  1618 ;;		Unchanged: FFE80/0
  1619 ;; Data sizes:     COMMON   BANK0   BANK1
  1620 ;;      Params:         0       0       0
  1621 ;;      Locals:         3       0       0
  1622 ;;      Temps:          0       0       0
  1623 ;;      Totals:         3       0       0
  1624 ;;Total ram usage:        3 bytes
  1625 ;; Hardware stack levels used:    1
  1626 ;; Hardware stack levels required when called:    1
  1627 ;; This function calls:
  1628 ;;		Nothing
  1629 ;; This function is called by:
  1630 ;;		_system_process
  1631 ;; This function uses a non-reentrant model
  1632 ;;
  1633  0243                     _FS_RD:	
  1634                           
  1635                           ; Regs used in _FS_RD: [wreg+status,2]
  1636                           ;FS_RD@iFS stored from wreg
  1637  0243  00F3               	movwf	FS_RD@iFS
  1638                           
  1639                           ;zuvo300_main.c: 353: tFS = iFS;
  1640  0244  00F1               	movwf	FS_RD@tFS
  1641  0245  01F2               	clrf	FS_RD@tFS+1
  1642                           
  1643                           ;zuvo300_main.c: 355: if (pFS > iFS)
  1644  0246  082C               	movf	FS_RD@pFS,w
  1645  0247  0273               	subwf	FS_RD@iFS,w
  1646  0248  1803               	skipnc
  1647  0249  2A4C               	goto	l1264
  1648                           
  1649                           ;zuvo300_main.c: 356: tFS += 0x100;
  1650  024A  3001               	movlw	1
  1651  024B  07F2               	addwf	FS_RD@tFS+1,f
  1652  024C                     l1264:	
  1653                           
  1654                           ;zuvo300_main.c: 358: tFS -= pFS;
  1655  024C  082C               	movf	FS_RD@pFS,w
  1656  024D  02F1               	subwf	FS_RD@tFS,f
  1657  024E  1C03               	skipc
  1658  024F  03F2               	decf	FS_RD@tFS+1,f
  1659                           
  1660                           ;zuvo300_main.c: 360: pFS = iFS;
  1661  0250  0873               	movf	FS_RD@iFS,w
  1662  0251  00AC               	movwf	FS_RD@pFS
  1663                           
  1664                           ;zuvo300_main.c: 362: return (tFS & 0xff);
  1665  0252  0871               	movf	FS_RD@tFS,w
  1666  0253  0008               	return
  1667  0254                     __end_of_FS_RD:	
  1668                           
  1669                           	psect	text387
  1670  0159                     __ptext387:	
  1671 ;; =============== function _FS_RD ends ============
  1672                           
  1673                           
  1674 ;; *************** function _RFID_RD *****************
  1675 ;; Defined at:
  1676 ;;		line 368 in file "C:\working\microchip\Firmware_Test1\src\zuvo300_main.c"
  1677 ;; Parameters:    Size  Location     Type
  1678 ;;		None
  1679 ;; Auto vars:     Size  Location     Type
  1680 ;;  tRFID           4    5[COMMON] unsigned long 
  1681 ;;  i               2    9[COMMON] unsigned int 
  1682 ;; Return value:  Size  Location     Type
  1683 ;;                  4    1[COMMON] unsigned long 
  1684 ;; Registers used:
  1685 ;;		wreg, status,2, status,0
  1686 ;; Tracked objects:
  1687 ;;		On entry : 17F/0
  1688 ;;		On exit  : 17F/0
  1689 ;;		Unchanged: FFE80/0
  1690 ;; Data sizes:     COMMON   BANK0   BANK1
  1691 ;;      Params:         4       0       0
  1692 ;;      Locals:         6       0       0
  1693 ;;      Temps:          0       0       0
  1694 ;;      Totals:        10       0       0
  1695 ;;Total ram usage:       10 bytes
  1696 ;; Hardware stack levels used:    1
  1697 ;; Hardware stack levels required when called:    1
  1698 ;; This function calls:
  1699 ;;		Nothing
  1700 ;; This function is called by:
  1701 ;;		_system_1s
  1702 ;; This function uses a non-reentrant model
  1703 ;;
  1704  0159                     _RFID_RD:	
  1705                           
  1706                           ;zuvo300_main.c: 370: unsigned long tRFID=0;;
  1707                           
  1708                           ; Regs used in _RFID_RD: [wreg+status,2+status,0]
  1709  0159  01F5               	clrf	RFID_RD@tRFID
  1710  015A  01F6               	clrf	RFID_RD@tRFID+1
  1711  015B  01F7               	clrf	RFID_RD@tRFID+2
  1712  015C  01F8               	clrf	RFID_RD@tRFID+3
  1713                           
  1714                           ;zuvo300_main.c: 373: LATA &= ~(1<<4);
  1715  015D  0022               	movlb	2	; select bank2
  1716  015E  120C               	bcf	12,4	;volatile
  1717                           
  1718                           ;zuvo300_main.c: 374: LATC &= ~(1<<1);
  1719  015F  108E               	bcf	14,1	;volatile
  1720                           
  1721                           ;zuvo300_main.c: 378: LATA |= (1<<4);
  1722  0160  160C               	bsf	12,4	;volatile
  1723                           
  1724                           ;zuvo300_main.c: 379: for (i=0; i<2; i++)
  1725  0161  01F9               	clrf	RFID_RD@i
  1726  0162  01FA               	clrf	RFID_RD@i+1
  1727  0163                     l1268:	
  1728                           
  1729                           ;zuvo300_main.c: 380: {
  1730                           ;zuvo300_main.c: 381: LATC |= ((1<<1));
  1731  0163  148E               	bsf	14,1	;volatile
  1732                           
  1733                           ;zuvo300_main.c: 382: LATC &= ~((1<<1));
  1734  0164  108E               	bcf	14,1	;volatile
  1735  0165  0AF9               	incf	RFID_RD@i,f
  1736  0166  1903               	skipnz
  1737  0167  0AFA               	incf	RFID_RD@i+1,f
  1738  0168  3000               	movlw	0
  1739  0169  027A               	subwf	RFID_RD@i+1,w
  1740  016A  3002               	movlw	2
  1741  016B  1903               	skipnz
  1742  016C  0279               	subwf	RFID_RD@i,w
  1743  016D  1C03               	skipc
  1744  016E  2963               	goto	l1268
  1745                           
  1746                           ;zuvo300_main.c: 383: }
  1747                           ;zuvo300_main.c: 384: LATA &= ~(1<<4);
  1748  016F  120C               	bcf	12,4	;volatile
  1749                           
  1750                           ;zuvo300_main.c: 387: for (i=0; i<16; i++)
  1751  0170  01F9               	clrf	RFID_RD@i
  1752  0171  01FA               	clrf	RFID_RD@i+1
  1753  0172                     l1270:	
  1754                           
  1755                           ;zuvo300_main.c: 388: {
  1756                           ;zuvo300_main.c: 389: LATC |= ((1<<1));
  1757  0172  0022               	movlb	2	; select bank2
  1758  0173  148E               	bsf	14,1	;volatile
  1759                           
  1760                           ;zuvo300_main.c: 390: LATC &= ~((1<<1));
  1761  0174  108E               	bcf	14,1	;volatile
  1762                           
  1763                           ;zuvo300_main.c: 391: tRFID = tRFID << 1;
  1764  0175  35F5               	lslf	RFID_RD@tRFID,f
  1765  0176  0DF6               	rlf	RFID_RD@tRFID+1,f
  1766  0177  0DF7               	rlf	RFID_RD@tRFID+2,f
  1767  0178  0DF8               	rlf	RFID_RD@tRFID+3,f
  1768                           
  1769                           ;zuvo300_main.c: 392: if ((PORTA & (1<<5)))
  1770  0179  0020               	movlb	0	; select bank0
  1771  017A  1E8C               	btfss	12,5
  1772  017B  2983               	goto	l2460
  1773                           
  1774                           ;zuvo300_main.c: 393: tRFID +=1;
  1775  017C  0AF5               	incf	RFID_RD@tRFID,f
  1776  017D  1903               	skipnz
  1777  017E  0AF6               	incf	RFID_RD@tRFID+1,f
  1778  017F  1903               	skipnz
  1779  0180  0AF7               	incf	RFID_RD@tRFID+2,f
  1780  0181  1903               	skipnz
  1781  0182  0AF8               	incf	RFID_RD@tRFID+3,f
  1782  0183                     l2460:	
  1783  0183  0AF9               	incf	RFID_RD@i,f
  1784  0184  1903               	skipnz
  1785  0185  0AFA               	incf	RFID_RD@i+1,f
  1786  0186  3000               	movlw	0
  1787  0187  027A               	subwf	RFID_RD@i+1,w
  1788  0188  3010               	movlw	16
  1789  0189  1903               	skipnz
  1790  018A  0279               	subwf	RFID_RD@i,w
  1791  018B  1C03               	skipc
  1792  018C  2972               	goto	l1270
  1793                           
  1794                           ;zuvo300_main.c: 394: }
  1795                           ;zuvo300_main.c: 396: return (tRFID);
  1796  018D  0878               	movf	RFID_RD@tRFID+3,w
  1797  018E  00F4               	movwf	?_RFID_RD+3
  1798  018F  0877               	movf	RFID_RD@tRFID+2,w
  1799  0190  00F3               	movwf	?_RFID_RD+2
  1800  0191  0876               	movf	RFID_RD@tRFID+1,w
  1801  0192  00F2               	movwf	?_RFID_RD+1
  1802  0193  0875               	movf	RFID_RD@tRFID,w
  1803  0194  00F1               	movwf	?_RFID_RD
  1804  0195  0008               	return
  1805  0196                     __end_of_RFID_RD:	
  1806                           
  1807                           	psect	intentry
  1808  0004                     __pintentry:	
  1809 ;; =============== function _RFID_RD ends ============
  1810                           
  1811                           
  1812 ;; *************** function _isr *****************
  1813 ;; Defined at:
  1814 ;;		line 131 in file "C:\working\microchip\Firmware_Test1\src\zuvo300_main.c"
  1815 ;; Parameters:    Size  Location     Type
  1816 ;;		None
  1817 ;; Auto vars:     Size  Location     Type
  1818 ;;  tFS_IN          1    0[COMMON] unsigned char 
  1819 ;; Return value:  Size  Location     Type
  1820 ;;		None               void
  1821 ;; Registers used:
  1822 ;;		wreg, status,2, status,0
  1823 ;; Tracked objects:
  1824 ;;		On entry : 0/0
  1825 ;;		On exit  : 0/0
  1826 ;;		Unchanged: FFFE0/0
  1827 ;; Data sizes:     COMMON   BANK0   BANK1
  1828 ;;      Params:         0       0       0
  1829 ;;      Locals:         1       0       0
  1830 ;;      Temps:          0       0       0
  1831 ;;      Totals:         1       0       0
  1832 ;;Total ram usage:        1 bytes
  1833 ;; Hardware stack levels used:    1
  1834 ;; This function calls:
  1835 ;;		Nothing
  1836 ;; This function is called by:
  1837 ;;		Interrupt level 1
  1838 ;; This function uses a non-reentrant model
  1839 ;;
  1840  0004                     _isr:	
  1841                           
  1842                           ; Regs used in _isr: [wreg+status,2+status,0]
  1843  0004  3180               	pagesel	$
  1844                           
  1845                           ;zuvo300_main.c: 132: static unsigned char tCntA = 0;
  1846                           ;zuvo300_main.c: 133: static unsigned char pFS_IN= 0;
  1847                           ;zuvo300_main.c: 134: unsigned char tFS_IN;
  1848                           ;zuvo300_main.c: 136: if(T0IF) {
  1849  0005  1D0B               	btfss	11,2
  1850  0006  281E               	goto	i1l2146
  1851                           
  1852                           ;zuvo300_main.c: 137: T0IF = 0;
  1853  0007  110B               	bcf	11,2
  1854                           
  1855                           ;zuvo300_main.c: 139: tFS_IN = PORTAbits.RA2;
  1856  0008  3000               	movlw	0
  1857  0009  0020               	movlb	0	; select bank0
  1858  000A  190C               	btfsc	12,2	;volatile
  1859  000B  3001               	movlw	1
  1860  000C  00F0               	movwf	isr@tFS_IN
  1861                           
  1862                           ;zuvo300_main.c: 141: if ((pFS_IN != tFS_IN) && (tFS_IN !=0))
  1863  000D  062F               	xorwf	isr@pFS_IN,w
  1864  000E  1903               	skipnz
  1865  000F  2814               	goto	i1l2138
  1866  0010  0870               	movf	isr@tFS_IN,w
  1867  0011  1903               	btfsc	3,2
  1868  0012  2814               	goto	i1l2138
  1869                           
  1870                           ;zuvo300_main.c: 142: mFS_Cnt ++;
  1871  0013  0AAD               	incf	_mFS_Cnt,f
  1872  0014                     i1l2138:	
  1873                           
  1874                           ;zuvo300_main.c: 143: pFS_IN = tFS_IN;
  1875  0014  0870               	movf	isr@tFS_IN,w
  1876  0015  00AF               	movwf	isr@pFS_IN
  1877                           
  1878                           ;zuvo300_main.c: 145: tCntA++;
  1879  0016  0AB0               	incf	isr@tCntA,f
  1880                           
  1881                           ;zuvo300_main.c: 146: if (tCntA>=10)
  1882  0017  300A               	movlw	10
  1883  0018  0230               	subwf	isr@tCntA,w
  1884  0019  1C03               	skipc
  1885  001A  281E               	goto	i1l2146
  1886                           
  1887                           ;zuvo300_main.c: 147: {
  1888                           ;zuvo300_main.c: 148: tCntA = 0;
  1889  001B  01B0               	clrf	isr@tCntA
  1890                           
  1891                           ;zuvo300_main.c: 149: mTimer_Flag0 = 1;
  1892  001C  01AE               	clrf	_mTimer_Flag0
  1893  001D  0AAE               	incf	_mTimer_Flag0,f
  1894  001E                     i1l2146:	
  1895                           
  1896                           ;zuvo300_main.c: 150: }
  1897                           ;zuvo300_main.c: 151: }
  1898                           ;zuvo300_main.c: 153: if(INTF) {
  1899  001E  188B               	btfsc	11,1
  1900                           
  1901                           ;zuvo300_main.c: 154: INTF = 0;
  1902  001F  108B               	bcf	11,1
  1903  0020  0009               	retfie
  1904  0021                     __end_of_isr:	
  1905                           
  1906 ;; =============== function _isr ends ============
  1907  007E                     btemp	set	126	;btemp
  1908  007E                     wtemp0	set	126


HI-TECH Software PICC Macro Assembler V9.71a build 6446 
Symbol Table                                                                                   Mon Oct 11 23:41:47 2010

            system_process@tFC 003A     system_output@tLED_FlashCnt 0026                            _GIE 005F  
                          u455 023A                            _UVL 0270                            _isr 0004  
                          wreg 0009               system_output@tmp 007A                __end_of_LED_RGB 0270  
                         ?_UVL 0070                           l1230 0134                           l1209 00D5  
                         l2210 0000                           l1250 0000                           l2204 0000  
                         l2212 0000                           l1253 0000                           l1270 0172  
                         l2206 0000                           l2214 0000                           l1264 024C  
                         l2208 0000                           l1256 0000                           l2216 0000  
                         l1273 0000                           l1265 0000                           l1505 0000  
                         l1259 0000                           l1268 0163                           l2500 01B9  
                         l2430 0000                           l2510 0000                           l2502 01BD  
                         l2432 0000                           l2520 01EE                           l2512 0000  
                         l2600 002B                           l2434 0000                           l2506 0000  
                         l2522 0000                           l2602 0000                           l2460 0183  
                         l2444 0000                           l2436 0000                           l2508 0000  
                         l2524 0000                           l2516 01DF                           l2540 00DE  
                         l2532 00D4                           l2620 007D                           l2612 006F  
                         l2454 0000                           l2446 0000                           l2438 0000  
                         l2470 0000                           l2542 00E0                           l2534 00D8  
                         l2550 00E7                           l2622 0000                           l2614 0000  
                         l2456 0000                           l2448 0000                           l2480 0000  
                         l2560 0000                           l2544 00E2                           l2536 00DA  
                         l2552 0100                           l2632 00BD                           l2608 005D  
                         l2640 0000                           l2466 0000                           l2482 0000  
                         l2554 0000                           l2546 00E4                           l2538 00DC  
                         l2570 0000                           l2618 0079                           l2650 0000  
                         l2642 0000                           l2634 0000                           l2468 0000  
                         l2476 0000                           l2492 01A2                           l2484 0000  
                         l2564 0000                           l2580 012E                           l2572 0000  
                         l2628 00AB                           l2660 0000                           l2652 0000  
                         l2644 0000                           l2636 0000                           l2478 0000  
                         l2494 01A6                           l2486 0000                           l2574 0000  
                         l2662 0000                           l2654 0000                           l2646 0000  
                         l2638 0000                           l2496 01AB                           l2488 019E  
                         l2592 0000                           l2584 0136                           l2576 0126  
                         l2568 0000                           l2656 0213                           l2648 0000  
                         l2498 01B4                           l2586 0000                           l2594 0000  
                         l2658 0000                           l2588 0000                           l2598 0028  
                         ?_isr 0070                           _T0IE 005D                           _T0IF 005A  
                         _LATA 010C                __end_of_RFID_RD 0196                           _LATC 010E  
                  LED_RGB@iVal 0071                           _INTF 0059           system_process@tDelay 0028  
                         _mUVL 003B                           _main 01FC                   ___ftpack@arg 0071  
                 ___ftpack@exp 0074                           fsr0h 0005                           fsr0l 0004  
                         indf0 0000                           btemp 007E                           start 0021  
                        ??_UVL 0071              system_output@ttmp 0079                          ??_isr 0070  
        __end_of_system_output 00BF                          ?_main 0070                          _FS_RD 0243  
                   Buzzer@iVal 0072                          _PORTA 000C                          _TRISA 008C  
                        _TRISC 008E                   LED_RGB@tPort 0072                          _mRFID 0020  
               _system_process 0119                  ___ftpack@sign 0075      system_process@tTMR_1S_CNT 002A  
                        status 0003                          wtemp0 007E                   __end_of_main 021F  
                       ??_main 007B                         ?_FS_RD 0070                      ??_LED_RGB 0071  
       __end_of_system_process 0159                      ??_RFID_RD 0075                     _mLED_Color 007C  
                       _ANSELA 018C               __end_of___ftpack 01D0                         i1l2130 0000  
                       i1l2140 0000                         i1l2132 0000                         i1l2126 0000  
                       i1l2144 0000                         i1l2136 0000                         i1l2138 0014  
                       i1l2146 001E               __end_of___lwtoft 0231                         _OSCCON 0099  
                  Buzzer@tPort 0073                         _Buzzer 0231                         ___ftge 01D0  
                       clrloop 027C                ?_system_process 0070                     ___ftge@ff1 0031  
                   ___ftge@ff2 0034                  __end_of_FS_RD 0254                 __pcstackCOMMON 0070  
                 __pidataBANK0 0000                     ___lwtoft@c 0037                        ??_FS_RD 0071  
                system_1s@tSec 003C                     __pbssBANK0 0020                   _mTimer_Flag0 002E  
                      ?_Buzzer 0070                     __pmaintext 01FC                        ?___ftge 0031  
                   __pintentry 0004                      ?___ftpack 0071                        UVL@iVal 0071  
                    ?___lwtoft 0037                        _LED_RGB 0262                        _RFID_RD 0159  
system_output@tBuzzer_FlashCnt 0024                        _mFS_Cnt 002D                __size_of_Buzzer 0012  
           __size_of_system_1s 0045                __size_of___ftge 002C                        _mBuzzer 007B  
                   ??___ftpack 0076                     ??___lwtoft 0079                   __size_of_UVL 000B  
                 __size_of_isr 001D           end_of_initialization 0260         __size_of_system_output 009C  
                 RFID_RD@tRFID 0075               ??_system_process 007B                      _PORTAbits 000C  
            __end_of_system_1s 0119                 __end_of_Buzzer 0243                 __end_of___ftge 01FC  
                _system_output 0023            start_initialization 0254                    __end_of_UVL 027B  
                  __end_of_isr 0021                       ??_Buzzer 0071                       ??___ftge 0079  
                  __pdataBANK0 003C                 ?_system_output 0070              __size_of___ftpack 003A  
                     ?_LED_RGB 0070                    __pbssCOMMON 007B              __size_of___lwtoft 0012  
                     ?_RFID_RD 0071                  __pcstackBANK0 0031                       RFID_RD@i 0079  
                     FS_RD@iFS 0073                       FS_RD@pFS 002C                       FS_RD@tFS 0071  
                    __pnvBANK0 003B                      __ptext380 00D4                      __ptext381 01D0  
                    __ptext382 0196                      __ptext383 0231                      __ptext384 0262  
                    __ptext385 0270                      __ptext377 0023                      __ptext386 0243  
                    __ptext378 0119                      __ptext387 0159                      __ptext379 021F  
               __size_of_FS_RD 0011                       UVL@tPort 0072                ??_system_output 0079  
             __size_of_LED_RGB 000E               __size_of_RFID_RD 003D                      _system_1s 00D4  
                    isr@pFS_IN 002F                      isr@tFS_IN 0070                       ___ftpack 0196  
                     ___lwtoft 021F                     ?_system_1s 0070                  __size_of_main 0023  
                     clear_ram 027B                       isr@tCntA 0030        __size_of_system_process 0040  
                     intlevel1 0000                     _OPTION_REG 0095                    ??_system_1s 007B  
